target datalayout = "e-m:e-p270:32:32-p271:32:32-p272:64:64-i64:64-i128:128-f80:128-n8:16:32:64-S128"
target triple = "x86_64-pc-linux-gnu"

%struct.archive_write = type { %struct.archive, i32, i64, i64, ptr, i64, ptr, ptr, ptr, ptr, ptr, i32, i32, ptr, ptr, ptr, ptr, ptr, ptr, ptr, ptr, ptr, ptr, ptr, ptr, ptr, ptr }
%struct.archive = type { i32, i32, ptr, i32, ptr, i32, i32, ptr, %struct.archive_string, ptr, i32, i32, ptr, ptr, i64, i64, i64, i8, i64 }
%struct.archive_string = type { ptr, i64, i64 }
%struct.archive_write_filter = type { i64, ptr, ptr, ptr, ptr, ptr, ptr, ptr, ptr, ptr, ptr, i32, i32, i32, i32 }
%struct.archive_none = type { i64, i64, ptr, ptr }

@.str.1 = private unnamed_addr constant [34 x i8] c"archive_write_get_bytes_per_block\00", align 1
@.str.3 = private unnamed_addr constant [38 x i8] c"archive_write_get_bytes_in_last_block\00", align 1
@.str.13 = private unnamed_addr constant [41 x i8] c"Can't allocate data for output buffering\00", align 1

; Function Attrs: nounwind uwtable
define dso_local i32 @archive_write_get_bytes_in_last_block(ptr noundef %0) #0 {
  %2 = alloca i32, align 4
  %3 = alloca ptr, align 8
  %4 = alloca ptr, align 8
  %5 = alloca i32, align 4
  %6 = alloca i32, align 4
  store ptr %0, ptr %3, align 8, !tbaa !26
  call void @llvm.lifetime.start.p0(i64 8, ptr %4) #9
  %7 = load ptr, ptr %3, align 8, !tbaa !26
  store ptr %7, ptr %4, align 8, !tbaa !4
  br label %8

8:                                                ; preds = %1
  call void @llvm.lifetime.start.p0(i64 4, ptr %5) #9
  %9 = load ptr, ptr %4, align 8, !tbaa !4
  %10 = getelementptr inbounds nuw %struct.archive_write, ptr %9, i32 0, i32 0
  %11 = call i32 @__archive_check_magic(ptr noundef %10, i32 noundef -1329217314, i32 noundef 32767, ptr noundef @.str.3)
  store i32 %11, ptr %5, align 4, !tbaa !28
  %12 = load i32, ptr %5, align 4, !tbaa !28
  %13 = icmp eq i32 %12, -30
  br i1 %13, label %14, label %15

14:                                               ; preds = %8
  store i32 -30, ptr %2, align 4
  store i32 1, ptr %6, align 4
  br label %16

15:                                               ; preds = %8
  store i32 0, ptr %6, align 4
  br label %16

16:                                               ; preds = %15, %14
  call void @llvm.lifetime.end.p0(i64 4, ptr %5) #9
  %17 = load i32, ptr %6, align 4
  switch i32 %17, label %24 [
    i32 0, label %18
  ]

18:                                               ; preds = %16
  br label %19

19:                                               ; preds = %18
  br label %20

20:                                               ; preds = %19
  %21 = load ptr, ptr %4, align 8, !tbaa !4
  %22 = getelementptr inbounds nuw %struct.archive_write, ptr %21, i32 0, i32 12
  %23 = load i32, ptr %22, align 4, !tbaa !22
  store i32 %23, ptr %2, align 4
  store i32 1, ptr %6, align 4
  br label %24

24:                                               ; preds = %20, %16
  call void @llvm.lifetime.end.p0(i64 8, ptr %4) #9
  %25 = load i32, ptr %2, align 4
  ret i32 %25
}

; Function Attrs: nounwind uwtable
define dso_local i32 @archive_write_get_bytes_per_block(ptr noundef %0) #0 {
  %2 = alloca i32, align 4
  %3 = alloca ptr, align 8
  %4 = alloca ptr, align 8
  %5 = alloca i32, align 4
  %6 = alloca i32, align 4
  store ptr %0, ptr %3, align 8, !tbaa !26
  call void @llvm.lifetime.start.p0(i64 8, ptr %4) #9
  %7 = load ptr, ptr %3, align 8, !tbaa !26
  store ptr %7, ptr %4, align 8, !tbaa !4
  br label %8

8:                                                ; preds = %1
  call void @llvm.lifetime.start.p0(i64 4, ptr %5) #9
  %9 = load ptr, ptr %4, align 8, !tbaa !4
  %10 = getelementptr inbounds nuw %struct.archive_write, ptr %9, i32 0, i32 0
  %11 = call i32 @__archive_check_magic(ptr noundef %10, i32 noundef -1329217314, i32 noundef 32767, ptr noundef @.str.1)
  store i32 %11, ptr %5, align 4, !tbaa !28
  %12 = load i32, ptr %5, align 4, !tbaa !28
  %13 = icmp eq i32 %12, -30
  br i1 %13, label %14, label %15

14:                                               ; preds = %8
  store i32 -30, ptr %2, align 4
  store i32 1, ptr %6, align 4
  br label %16

15:                                               ; preds = %8
  store i32 0, ptr %6, align 4
  br label %16

16:                                               ; preds = %15, %14
  call void @llvm.lifetime.end.p0(i64 4, ptr %5) #9
  %17 = load i32, ptr %6, align 4
  switch i32 %17, label %30 [
    i32 0, label %18
  ]

18:                                               ; preds = %16
  br label %19

19:                                               ; preds = %18
  br label %20

20:                                               ; preds = %19
  %21 = load ptr, ptr %4, align 8, !tbaa !4
  %22 = getelementptr inbounds nuw %struct.archive_write, ptr %21, i32 0, i32 11
  %23 = load i32, ptr %22, align 8, !tbaa !21
  %24 = icmp slt i32 %23, 0
  br i1 %24, label %25, label %26

25:                                               ; preds = %20
  store i32 1, ptr %2, align 4
  store i32 1, ptr %6, align 4
  br label %30

26:                                               ; preds = %20
  %27 = load ptr, ptr %4, align 8, !tbaa !4
  %28 = getelementptr inbounds nuw %struct.archive_write, ptr %27, i32 0, i32 11
  %29 = load i32, ptr %28, align 8, !tbaa !21
  store i32 %29, ptr %2, align 4
  store i32 1, ptr %6, align 4
  br label %30

30:                                               ; preds = %26, %25, %16
  call void @llvm.lifetime.end.p0(i64 8, ptr %4) #9
  %31 = load i32, ptr %2, align 4
  ret i32 %31
}

; Function Attrs: nounwind uwtable
define internal i32 @archive_write_client_open(ptr noundef %0) #0 {
  %2 = alloca i32, align 4
  %3 = alloca ptr, align 8
  %4 = alloca ptr, align 8
  %5 = alloca ptr, align 8
  %6 = alloca ptr, align 8
  %7 = alloca i64, align 8
  %8 = alloca i32, align 4
  %9 = alloca i32, align 4
  store ptr %0, ptr %3, align 8, !tbaa !33
  call void @llvm.lifetime.start.p0(i64 8, ptr %4) #9
  %10 = load ptr, ptr %3, align 8, !tbaa !33
  %11 = getelementptr inbounds nuw %struct.archive_write_filter, ptr %10, i32 0, i32 1
  %12 = load ptr, ptr %11, align 8, !tbaa !34
  store ptr %12, ptr %4, align 8, !tbaa !4
  call void @llvm.lifetime.start.p0(i64 8, ptr %5) #9
  call void @llvm.lifetime.start.p0(i64 8, ptr %6) #9
  call void @llvm.lifetime.start.p0(i64 8, ptr %7) #9
  call void @llvm.lifetime.start.p0(i64 4, ptr %8) #9
  %13 = load ptr, ptr %3, align 8, !tbaa !33
  %14 = getelementptr inbounds nuw %struct.archive_write_filter, ptr %13, i32 0, i32 1
  %15 = load ptr, ptr %14, align 8, !tbaa !34
  %16 = call i32 @archive_write_get_bytes_per_block(ptr noundef %15)
  %17 = load ptr, ptr %3, align 8, !tbaa !33
  %18 = getelementptr inbounds nuw %struct.archive_write_filter, ptr %17, i32 0, i32 12
  store i32 %16, ptr %18, align 4, !tbaa !54
  %19 = load ptr, ptr %3, align 8, !tbaa !33
  %20 = getelementptr inbounds nuw %struct.archive_write_filter, ptr %19, i32 0, i32 1
  %21 = load ptr, ptr %20, align 8, !tbaa !34
  %22 = call i32 @archive_write_get_bytes_in_last_block(ptr noundef %21)
  %23 = load ptr, ptr %3, align 8, !tbaa !33
  %24 = getelementptr inbounds nuw %struct.archive_write_filter, ptr %23, i32 0, i32 13
  store i32 %22, ptr %24, align 8, !tbaa !55
  %25 = load ptr, ptr %3, align 8, !tbaa !33
  %26 = getelementptr inbounds nuw %struct.archive_write_filter, ptr %25, i32 0, i32 12
  %27 = load i32, ptr %26, align 4, !tbaa !54
  %28 = sext i32 %27 to i64
  store i64 %28, ptr %7, align 8, !tbaa !29
  %29 = call noalias ptr @calloc(i64 noundef 1, i64 noundef 32) #10
  store ptr %29, ptr %5, align 8, !tbaa !56
  %30 = load i64, ptr %7, align 8, !tbaa !29
  %31 = call noalias ptr @malloc(i64 noundef %30) #11
  store ptr %31, ptr %6, align 8, !tbaa !40
  %32 = load ptr, ptr %5, align 8, !tbaa !56
  %33 = icmp eq ptr %32, null
  br i1 %33, label %37, label %34

34:                                               ; preds = %1
  %35 = load ptr, ptr %6, align 8, !tbaa !40
  %36 = icmp eq ptr %35, null
  br i1 %36, label %37, label %43

37:                                               ; preds = %34, %1
  %38 = load ptr, ptr %5, align 8, !tbaa !56
  call void @free(ptr noundef %38) #9
  %39 = load ptr, ptr %6, align 8, !tbaa !40
  call void @free(ptr noundef %39) #9
  %40 = load ptr, ptr %3, align 8, !tbaa !33
  %41 = getelementptr inbounds nuw %struct.archive_write_filter, ptr %40, i32 0, i32 1
  %42 = load ptr, ptr %41, align 8, !tbaa !34
  call void (ptr, i32, ptr, ...) @archive_set_error(ptr noundef %42, i32 noundef 12, ptr noundef @.str.13)
  store i32 -30, ptr %2, align 4
  store i32 1, ptr %9, align 4
  br label %90

43:                                               ; preds = %34
  %44 = load i64, ptr %7, align 8, !tbaa !29
  %45 = load ptr, ptr %5, align 8, !tbaa !56
  %46 = getelementptr inbounds nuw %struct.archive_none, ptr %45, i32 0, i32 0
  store i64 %44, ptr %46, align 8, !tbaa !58
  %47 = load ptr, ptr %6, align 8, !tbaa !40
  %48 = load ptr, ptr %5, align 8, !tbaa !56
  %49 = getelementptr inbounds nuw %struct.archive_none, ptr %48, i32 0, i32 2
  store ptr %47, ptr %49, align 8, !tbaa !60
  %50 = load ptr, ptr %5, align 8, !tbaa !56
  %51 = getelementptr inbounds nuw %struct.archive_none, ptr %50, i32 0, i32 2
  %52 = load ptr, ptr %51, align 8, !tbaa !60
  %53 = load ptr, ptr %5, align 8, !tbaa !56
  %54 = getelementptr inbounds nuw %struct.archive_none, ptr %53, i32 0, i32 3
  store ptr %52, ptr %54, align 8, !tbaa !61
  %55 = load ptr, ptr %5, align 8, !tbaa !56
  %56 = getelementptr inbounds nuw %struct.archive_none, ptr %55, i32 0, i32 0
  %57 = load i64, ptr %56, align 8, !tbaa !58
  %58 = load ptr, ptr %5, align 8, !tbaa !56
  %59 = getelementptr inbounds nuw %struct.archive_none, ptr %58, i32 0, i32 1
  store i64 %57, ptr %59, align 8, !tbaa !62
  %60 = load ptr, ptr %5, align 8, !tbaa !56
  %61 = load ptr, ptr %3, align 8, !tbaa !33
  %62 = getelementptr inbounds nuw %struct.archive_write_filter, ptr %61, i32 0, i32 9
  store ptr %60, ptr %62, align 8, !tbaa !63
  %63 = load ptr, ptr %4, align 8, !tbaa !4
  %64 = getelementptr inbounds nuw %struct.archive_write, ptr %63, i32 0, i32 6
  %65 = load ptr, ptr %64, align 8, !tbaa !46
  %66 = icmp eq ptr %65, null
  br i1 %66, label %67, label %68

67:                                               ; preds = %43
  store i32 0, ptr %2, align 4
  store i32 1, ptr %9, align 4
  br label %90

68:                                               ; preds = %43
  %69 = load ptr, ptr %4, align 8, !tbaa !4
  %70 = getelementptr inbounds nuw %struct.archive_write, ptr %69, i32 0, i32 6
  %71 = load ptr, ptr %70, align 8, !tbaa !46
  %72 = load ptr, ptr %3, align 8, !tbaa !33
  %73 = getelementptr inbounds nuw %struct.archive_write_filter, ptr %72, i32 0, i32 1
  %74 = load ptr, ptr %73, align 8, !tbaa !34
  %75 = load ptr, ptr %4, align 8, !tbaa !4
  %76 = getelementptr inbounds nuw %struct.archive_write, ptr %75, i32 0, i32 10
  %77 = load ptr, ptr %76, align 8, !tbaa !49
  %78 = call i32 %71(ptr noundef %74, ptr noundef %77)
  store i32 %78, ptr %8, align 4, !tbaa !28
  %79 = load i32, ptr %8, align 4, !tbaa !28
  %80 = icmp ne i32 %79, 0
  br i1 %80, label %81, label %88

81:                                               ; preds = %68
  %82 = load ptr, ptr %5, align 8, !tbaa !56
  %83 = getelementptr inbounds nuw %struct.archive_none, ptr %82, i32 0, i32 2
  %84 = load ptr, ptr %83, align 8, !tbaa !60
  call void @free(ptr noundef %84) #9
  %85 = load ptr, ptr %5, align 8, !tbaa !56
  call void @free(ptr noundef %85) #9
  %86 = load ptr, ptr %3, align 8, !tbaa !33
  %87 = getelementptr inbounds nuw %struct.archive_write_filter, ptr %86, i32 0, i32 9
  store ptr null, ptr %87, align 8, !tbaa !63
  br label %88

88:                                               ; preds = %81, %68
  %89 = load i32, ptr %8, align 4, !tbaa !28
  store i32 %89, ptr %2, align 4
  store i32 1, ptr %9, align 4
  br label %90

90:                                               ; preds = %88, %67, %37
  call void @llvm.lifetime.end.p0(i64 4, ptr %8) #9
  call void @llvm.lifetime.end.p0(i64 8, ptr %7) #9
  call void @llvm.lifetime.end.p0(i64 8, ptr %6) #9
  call void @llvm.lifetime.end.p0(i64 8, ptr %5) #9
  call void @llvm.lifetime.end.p0(i64 8, ptr %4) #9
  %91 = load i32, ptr %2, align 4
  ret i32 %91
}