; Function Attrs: nounwind uwtable
define internal i32 @archive_write_client_open(ptr noundef captures(none) initializes((92, 100)) %0) #3 {
  %2 = getelementptr inbounds nuw i8, ptr %0, i64 8
  %3 = load ptr, ptr %2, align 8, !tbaa !26
  %4 = tail call i32 @__archive_check_magic(ptr noundef %3, i32 noundef -1329217314, i32 noundef 32767, ptr noundef nonnull @.str.1) #13
  %.not.i = icmp eq i32 %4, -30
  br i1 %.not.i, label %archive_write_get_bytes_per_block.exit, label %5

5:                                                ; preds = %1
  %6 = getelementptr inbounds nuw i8, ptr %3, i64 224
  %7 = load i32, ptr %6, align 8, !tbaa !19
  %8 = icmp slt i32 %7, 0
  %..i = select i1 %8, i32 1, i32 %7
  br label %archive_write_get_bytes_per_block.exit

archive_write_get_bytes_per_block.exit:           ; preds = %1, %5
  %.1.i = phi i32 [ -30, %1 ], [ %..i, %5 ]
  %9 = getelementptr inbounds nuw i8, ptr %0, i64 92
  store i32 %.1.i, ptr %9, align 4, !tbaa !48
  %10 = load ptr, ptr %2, align 8, !tbaa !26
  %11 = tail call i32 @__archive_check_magic(ptr noundef %10, i32 noundef -1329217314, i32 noundef 32767, ptr noundef nonnull @.str.3) #13
  %.not.i35 = icmp eq i32 %11, -30
  br i1 %.not.i35, label %archive_write_get_bytes_in_last_block.exit, label %12

12:                                               ; preds = %archive_write_get_bytes_per_block.exit
  %13 = getelementptr inbounds nuw i8, ptr %10, i64 228
  %14 = load i32, ptr %13, align 4, !tbaa !20
  br label %archive_write_get_bytes_in_last_block.exit

archive_write_get_bytes_in_last_block.exit:       ; preds = %archive_write_get_bytes_per_block.exit, %12
  %.1.i36 = phi i32 [ %14, %12 ], [ -30, %archive_write_get_bytes_per_block.exit ]
  %15 = getelementptr inbounds nuw i8, ptr %0, i64 96
  store i32 %.1.i36, ptr %15, align 8, !tbaa !49
  %16 = load i32, ptr %9, align 4, !tbaa !48
  %17 = sext i32 %16 to i64
  %18 = tail call noalias dereferenceable_or_null(32) ptr @calloc(i64 noundef 1, i64 noundef 32) #12
  %19 = tail call noalias ptr @malloc(i64 noundef %17) #14
  %20 = icmp eq ptr %18, null
  %21 = icmp eq ptr %19, null
  %or.cond = or i1 %20, %21
  br i1 %or.cond, label %22, label %24

22:                                               ; preds = %archive_write_get_bytes_in_last_block.exit
  tail call void @free(ptr noundef %18) #13
  tail call void @free(ptr noundef %19) #13
  %23 = load ptr, ptr %2, align 8, !tbaa !26
  tail call void (ptr, i32, ptr, ...) @archive_set_error(ptr noundef %23, i32 noundef 12, ptr noundef nonnull @.str.13) #13
  br label %39

24:                                               ; preds = %archive_write_get_bytes_in_last_block.exit
  store i64 %17, ptr %18, align 8, !tbaa !50
  %25 = getelementptr inbounds nuw i8, ptr %18, i64 16
  store ptr %19, ptr %25, align 8, !tbaa !52
  %26 = getelementptr inbounds nuw i8, ptr %18, i64 24
  store ptr %19, ptr %26, align 8, !tbaa !53
  %27 = getelementptr inbounds nuw i8, ptr %18, i64 8
  store i64 %17, ptr %27, align 8, !tbaa !54
  %28 = getelementptr inbounds nuw i8, ptr %0, i64 72
  store ptr %18, ptr %28, align 8, !tbaa !55
  %29 = getelementptr inbounds nuw i8, ptr %3, i64 184
  %30 = load ptr, ptr %29, align 8, !tbaa !36
  %31 = icmp eq ptr %30, null
  br i1 %31, label %39, label %32

32:                                               ; preds = %24
  %33 = load ptr, ptr %2, align 8, !tbaa !26
  %34 = getelementptr inbounds nuw i8, ptr %3, i64 216
  %35 = load ptr, ptr %34, align 8, !tbaa !39
  %36 = tail call i32 %30(ptr noundef %33, ptr noundef %35) #13
  %.not = icmp eq i32 %36, 0
  br i1 %.not, label %39, label %37

37:                                               ; preds = %32
  %38 = load ptr, ptr %25, align 8, !tbaa !52
  tail call void @free(ptr noundef %38) #13
  tail call void @free(ptr noundef nonnull %18) #13
  store ptr null, ptr %28, align 8, !tbaa !55
  br label %39

39:                                               ; preds = %32, %37, %24, %22
  %.0 = phi i32 [ -30, %22 ], [ 0, %24 ], [ %36, %37 ], [ 0, %32 ]
  ret i32 %.0
}